; Function Attrs: alwaysinline norecurse nounwind ssp uwtable
define internal void @"_ZN6open3d4core15ParallelForCPU_IZZZNS_1t8geometry6kernel5image16ClipTransformCPUERKNS0_6TensorERS6_ffffENK3$_0clEvENKUlvE8_clEvEUllE_EEvRKNS0_6DeviceElRKT_.omp_outlined"(ptr noalias noundef readonly captures(none) %0, ptr noalias readnone captures(none) %1, ptr noundef nonnull readonly align 8 captures(none) dereferenceable(8) %2, ptr noundef nonnull readonly align 8 captures(none) dereferenceable(136) %3) #15 personality ptr @__gxx_personality_v0 {
  %5 = alloca i64, align 8
  %6 = alloca i64, align 8
  %7 = alloca i64, align 8
  %8 = alloca i32, align 4
  %9 = load i64, ptr %2, align 8, !tbaa !36
  %10 = icmp sgt i64 %9, 0
  br i1 %10, label %11, label %57

11:                                               ; preds = %4
  %12 = add nsw i64 %9, -1
  call void @llvm.lifetime.start.p0(i64 8, ptr nonnull %5) #16
  store i64 0, ptr %5, align 8, !tbaa !36
  call void @llvm.lifetime.start.p0(i64 8, ptr nonnull %6) #16
  store i64 %12, ptr %6, align 8, !tbaa !36
  call void @llvm.lifetime.start.p0(i64 8, ptr nonnull %7) #16
  store i64 1, ptr %7, align 8, !tbaa !36
  call void @llvm.lifetime.start.p0(i64 4, ptr nonnull %8) #16
  store i32 0, ptr %8, align 4, !tbaa !16
  %13 = load i32, ptr %0, align 4, !tbaa !16
  call void @__kmpc_for_static_init_8(ptr nonnull @1, i32 %13, i32 34, ptr nonnull %8, ptr nonnull %5, ptr nonnull %6, ptr nonnull %7, i64 1, i64 1)
  %14 = load i64, ptr %6, align 8, !tbaa !36
  %15 = call i64 @llvm.smin.i64(i64 %14, i64 %12)
  store i64 %15, ptr %6, align 8, !tbaa !36
  %16 = load i64, ptr %5, align 8, !tbaa !36
  %.not13 = icmp sgt i64 %16, %15
  br i1 %.not13, label %._crit_edge, label %.lr.ph

.lr.ph:                                           ; preds = %11
  %17 = load i64, ptr %3, align 8, !tbaa !1409
  %18 = getelementptr inbounds nuw i8, ptr %3, i64 8
  %19 = getelementptr inbounds nuw i8, ptr %3, i64 40
  %20 = load i64, ptr %19, align 8, !tbaa !36
  %21 = load ptr, ptr %18, align 8, !tbaa !1334
  %22 = getelementptr inbounds nuw i8, ptr %3, i64 16
  %23 = load i64, ptr %22, align 8, !tbaa !1320
  %24 = getelementptr inbounds nuw i8, ptr %3, i64 64
  %25 = getelementptr inbounds nuw i8, ptr %3, i64 68
  %26 = getelementptr inbounds nuw i8, ptr %3, i64 72
  %27 = getelementptr inbounds nuw i8, ptr %3, i64 76
  %28 = getelementptr inbounds nuw i8, ptr %3, i64 80
  %29 = getelementptr inbounds nuw i8, ptr %3, i64 112
  %30 = load i64, ptr %29, align 8, !tbaa !36
  %31 = load ptr, ptr %28, align 8, !tbaa !1334
  %32 = getelementptr inbounds nuw i8, ptr %3, i64 88
  %33 = load i64, ptr %32, align 8, !tbaa !1320
  br label %34

34:                                               ; preds = %.lr.ph, %34
  %.014 = phi i64 [ %16, %.lr.ph ], [ %56, %34 ]
  %35 = sdiv i64 %.014, %17
  %36 = srem i64 %.014, %17
  %37 = mul nsw i64 %20, %35
  %38 = add nsw i64 %37, %36
  %39 = mul nsw i64 %38, %23
  %40 = getelementptr inbounds i8, ptr %21, i64 %39
  %41 = load i64, ptr %40, align 8, !tbaa !36
  %42 = uitofp i64 %41 to float
  %43 = load float, ptr %24, align 8, !tbaa !1413
  %44 = fdiv float %42, %43
  %45 = load float, ptr %25, align 4, !tbaa !1415
  %46 = fcmp ugt float %44, %45
  %47 = load float, ptr %26, align 8
  %48 = select i1 %46, float %44, float %47
  %49 = load float, ptr %27, align 4, !tbaa !1419
  %50 = fcmp ult float %48, %49
  %51 = select i1 %50, float %48, float %47
  %52 = mul nsw i64 %30, %35
  %53 = add nsw i64 %52, %36
  %54 = mul nsw i64 %53, %33
  %55 = getelementptr inbounds i8, ptr %31, i64 %54
  store float %51, ptr %55, align 4, !tbaa !38
  %56 = add i64 %.014, 1
  %exitcond.not = icmp eq i64 %.014, %15
  br i1 %exitcond.not, label %._crit_edge, label %34

._crit_edge:                                      ; preds = %34, %11
  call void @__kmpc_for_static_fini(ptr nonnull @1, i32 %13)
  call void @llvm.lifetime.end.p0(i64 4, ptr nonnull %8) #16
  call void @llvm.lifetime.end.p0(i64 8, ptr nonnull %7) #16
  call void @llvm.lifetime.end.p0(i64 8, ptr nonnull %6) #16
  call void @llvm.lifetime.end.p0(i64 8, ptr nonnull %5) #16
  br label %57

57:                                               ; preds = %._crit_edge, %4
  ret void
}